; Function Attrs: null_pointer_is_valid sspstrong uwtable
define internal i32 @dissect_eip_cert_create(ptr noundef %0, ptr noundef %1, ptr noundef %2, ptr noundef %3, i32 noundef %4, i1 noundef zeroext %5) #0 {
  br i1 %5, label %7, label %10

7:                                                ; preds = %6
  %8 = load i32, ptr @hf_eip_cert_name, align 4
  %9 = tail call i32 @dissect_cip_string_type(ptr noundef %0, ptr noundef %1, ptr noundef %2, ptr noundef %3, i32 noundef %4, i32 noundef %8, i32 noundef 218)
  br label %13

10:                                               ; preds = %6
  %11 = load i32, ptr @hf_cip_instance16, align 4
  %12 = tail call ptr @proto_tree_add_item(ptr noundef %1, i32 noundef %11, ptr noundef %3, i32 noundef %4, i32 noundef 2, i32 noundef -2147483648)
  br label %13

13:                                               ; preds = %10, %7
  %.0 = phi i32 [ %9, %7 ], [ 2, %10 ]
  ret i32 %.0
}